; Function Attrs: mustprogress nounwind uwtable
define internal noundef zeroext i1 @"_ZN4llvm12function_refIFbRNS_3UseEEE11callback_fnIZ16replaceConstantsRNS_16OutlinableRegionEE3$_0EEblS2_"(i64 noundef %0, ptr nocapture noundef nonnull readonly align 8 dereferenceable(32) %1) #0 align 2 {
  %3 = getelementptr inbounds i8, ptr %1, i64 24
  %.val = load ptr, ptr %3, align 8
  %4 = load i8, ptr %.val, align 8
  %5 = icmp ult i8 %4, 29
  br i1 %5, label %"_ZZ16replaceConstantsRN4llvm16OutlinableRegionEENK3$_0clERNS_3UseE.exit", label %6

6:                                                ; preds = %2
  %7 = inttoptr i64 %0 to ptr
  %8 = tail call noundef ptr @_ZNK4llvm11Instruction11getFunctionEv(ptr noundef nonnull align 8 dereferenceable(72) %.val) #24
  %9 = load ptr, ptr %7, align 8
  %10 = icmp eq ptr %8, %9
  br label %"_ZZ16replaceConstantsRN4llvm16OutlinableRegionEENK3$_0clERNS_3UseE.exit"

"_ZZ16replaceConstantsRN4llvm16OutlinableRegionEENK3$_0clERNS_3UseE.exit": ; preds = %2, %6
  %.0.i = phi i1 [ %10, %6 ], [ false, %2 ]
  ret i1 %.0.i
}